; Function Attrs: mustprogress uwtable
define void @_ZN3gmx26FreeEnergyPerturbationData14setLambdaStateEli(ptr noundef nonnull align 8 captures(none) dereferenceable(64) initializes((8, 40)) %0, i64 noundef %1, i32 noundef %2) local_unnamed_addr #0 align 2 {
  %4 = alloca %"struct.gmx::EnumerationArray", align 4
  %5 = getelementptr inbounds nuw i8, ptr %0, i64 36
  store i32 %2, ptr %5, align 4, !tbaa !190
  call void @llvm.lifetime.start.p0(i64 28, ptr nonnull %4) #32
  %6 = getelementptr inbounds nuw i8, ptr %0, i64 48
  %7 = load ptr, ptr %6, align 8, !tbaa !189
  %8 = getelementptr inbounds nuw i8, ptr %7, i64 424
  %9 = load ptr, ptr %8, align 8, !tbaa !81
  call void @_ZN3gmx14currentLambdasElRK8t_lambdai(ptr dead_on_unwind nonnull writable sret(%"struct.gmx::EnumerationArray") align 4 %4, i64 noundef %1, ptr noundef nonnull align 8 dereferenceable(288) %9, i32 noundef %2)
  %10 = getelementptr inbounds nuw i8, ptr %0, i64 8
  call void @llvm.memcpy.p0.p0.i64(ptr noundef nonnull align 8 dereferenceable(28) %10, ptr noundef nonnull align 4 dereferenceable(28) %4, i64 28, i1 false), !tbaa.struct !191
  call void @llvm.lifetime.end.p0(i64 28, ptr nonnull %4) #32
  %11 = getelementptr inbounds nuw i8, ptr %0, i64 56
  %12 = load ptr, ptr %11, align 8, !tbaa !35
  %13 = load ptr, ptr %12, align 8, !tbaa !47
  %14 = getelementptr inbounds nuw i8, ptr %0, i64 12
  %15 = load float, ptr %14, align 4, !tbaa !49
  call void @_Z14update_mdatomsP9t_mdatomsf(ptr noundef %13, float noundef %15)
  ret void
}